
_foo:     file format elf32-i386


Disassembly of section .text:

00000000 <main>:
#include "types.h"
#include "stat.h"
#include "user.h"

int main (int argc, char* argv[]) {
   0:	8d 4c 24 04          	lea    0x4(%esp),%ecx
   4:	83 e4 f0             	and    $0xfffffff0,%esp
   7:	ff 71 fc             	pushl  -0x4(%ecx)
   a:	55                   	push   %ebp
   b:	89 e5                	mov    %esp,%ebp
   d:	57                   	push   %edi
   e:	56                   	push   %esi
   f:	53                   	push   %ebx
  10:	51                   	push   %ecx
  11:	bb d0 07 00 00       	mov    $0x7d0,%ebx
  16:	83 ec 28             	sub    $0x28,%esp

    int delay = 2000;

    int pid1 = fork();
  19:	e8 7c 03 00 00       	call   39a <fork>
    char p1[5] = "50.0", p2[5] = "5.0", p3[5] = "40.0";
    if (pid1 > 0) {
  1e:	85 c0                	test   %eax,%eax
    char p1[5] = "50.0", p2[5] = "5.0", p3[5] = "40.0";
  20:	c7 45 d9 35 30 2e 30 	movl   $0x302e3035,-0x27(%ebp)
  27:	c6 45 dd 00          	movb   $0x0,-0x23(%ebp)
  2b:	c7 45 de 35 2e 30 00 	movl   $0x302e35,-0x22(%ebp)
  32:	c6 45 e2 00          	movb   $0x0,-0x1e(%ebp)
  36:	c7 45 e3 34 30 2e 30 	movl   $0x302e3034,-0x1d(%ebp)
  3d:	c6 45 e7 00          	movb   $0x0,-0x19(%ebp)
    if (pid1 > 0) {
  41:	7f 21                	jg     64 <main+0x64>
  43:	90                   	nop
  44:	8d 74 26 00          	lea    0x0(%esi,%eiz,1),%esi
        }
    }
    else {
        while (delay > 0) {
            delay--;
            printf(1, "1");    
  48:	83 ec 08             	sub    $0x8,%esp
  4b:	68 6e 08 00 00       	push   $0x86e
  50:	6a 01                	push   $0x1
  52:	e8 b9 04 00 00       	call   510 <printf>
        while (delay > 0) {
  57:	83 c4 10             	add    $0x10,%esp
  5a:	83 eb 01             	sub    $0x1,%ebx
  5d:	75 e9                	jne    48 <main+0x48>
        }
    }
    
    exit();
  5f:	e8 3e 03 00 00       	call   3a2 <exit>
  64:	89 c6                	mov    %eax,%esi
        int pid2 = fork();
  66:	e8 2f 03 00 00       	call   39a <fork>
        if (pid2 > 0) {
  6b:	85 c0                	test   %eax,%eax
        int pid2 = fork();
  6d:	89 c7                	mov    %eax,%edi
        if (pid2 > 0) {
  6f:	7f 20                	jg     91 <main+0x91>
  71:	8d b4 26 00 00 00 00 	lea    0x0(%esi,%eiz,1),%esi
                printf(1, "2");    
  78:	83 ec 08             	sub    $0x8,%esp
  7b:	68 6c 08 00 00       	push   $0x86c
  80:	6a 01                	push   $0x1
  82:	e8 89 04 00 00       	call   510 <printf>
            while (delay > 0) {
  87:	83 c4 10             	add    $0x10,%esp
  8a:	83 eb 01             	sub    $0x1,%ebx
  8d:	75 e9                	jne    78 <main+0x78>
  8f:	eb ce                	jmp    5f <main+0x5f>
            int pid3 = fork();
  91:	e8 04 03 00 00       	call   39a <fork>
            if (pid3 > 0) {
  96:	85 c0                	test   %eax,%eax
  98:	89 45 d4             	mov    %eax,-0x2c(%ebp)
  9b:	7f 1c                	jg     b9 <main+0xb9>
  9d:	8d 76 00             	lea    0x0(%esi),%esi
                printf(1, "3");    
  a0:	83 ec 08             	sub    $0x8,%esp
  a3:	68 6a 08 00 00       	push   $0x86a
  a8:	6a 01                	push   $0x1
  aa:	e8 61 04 00 00       	call   510 <printf>
                while (delay > 0) {
  af:	83 c4 10             	add    $0x10,%esp
  b2:	83 eb 01             	sub    $0x1,%ebx
  b5:	75 e9                	jne    a0 <main+0xa0>
  b7:	eb a6                	jmp    5f <main+0x5f>
                evalTicket(pid1, 1000);
  b9:	50                   	push   %eax
  ba:	50                   	push   %eax
  bb:	68 e8 03 00 00       	push   $0x3e8
  c0:	56                   	push   %esi
  c1:	e8 84 03 00 00       	call   44a <evalTicket>
                evalTicket(pid2, 1000);
  c6:	5a                   	pop    %edx
  c7:	59                   	pop    %ecx
  c8:	68 e8 03 00 00       	push   $0x3e8
  cd:	57                   	push   %edi
  ce:	e8 77 03 00 00       	call   44a <evalTicket>
                evalTicket(pid3, 1000);
  d3:	8b 55 d4             	mov    -0x2c(%ebp),%edx
  d6:	5b                   	pop    %ebx
  d7:	58                   	pop    %eax
  d8:	68 e8 03 00 00       	push   $0x3e8
  dd:	52                   	push   %edx
  de:	e8 67 03 00 00       	call   44a <evalTicket>
                changeQueueNum(pid1, 0);
  e3:	58                   	pop    %eax
  e4:	5a                   	pop    %edx
  e5:	6a 00                	push   $0x0
  e7:	56                   	push   %esi
  e8:	e8 55 03 00 00       	call   442 <changeQueueNum>
                changeQueueNum(pid2, 1);
  ed:	59                   	pop    %ecx
  ee:	5b                   	pop    %ebx
  ef:	6a 01                	push   $0x1
  f1:	57                   	push   %edi
  f2:	e8 4b 03 00 00       	call   442 <changeQueueNum>
                changeQueueNum(pid3, 0);
  f7:	58                   	pop    %eax
  f8:	5a                   	pop    %edx
  f9:	8b 55 d4             	mov    -0x2c(%ebp),%edx
  fc:	6a 00                	push   $0x0
  fe:	52                   	push   %edx
  ff:	e8 3e 03 00 00       	call   442 <changeQueueNum>
                evalRemainingPriority(pid1, p1);
 104:	59                   	pop    %ecx
 105:	8d 45 d9             	lea    -0x27(%ebp),%eax
 108:	5b                   	pop    %ebx
 109:	50                   	push   %eax
 10a:	56                   	push   %esi
 10b:	e8 42 03 00 00       	call   452 <evalRemainingPriority>
                evalRemainingPriority(pid2, p2);
 110:	5e                   	pop    %esi
 111:	58                   	pop    %eax
 112:	8d 45 de             	lea    -0x22(%ebp),%eax
 115:	50                   	push   %eax
 116:	57                   	push   %edi
 117:	e8 36 03 00 00       	call   452 <evalRemainingPriority>
                evalRemainingPriority(pid3, p3);
 11c:	58                   	pop    %eax
 11d:	5a                   	pop    %edx
 11e:	8b 55 d4             	mov    -0x2c(%ebp),%edx
 121:	8d 45 e3             	lea    -0x1d(%ebp),%eax
 124:	50                   	push   %eax
 125:	52                   	push   %edx
 126:	e8 27 03 00 00       	call   452 <evalRemainingPriority>
                wait();
 12b:	e8 7a 02 00 00       	call   3aa <wait>
                wait();
 130:	e8 75 02 00 00       	call   3aa <wait>
                wait();
 135:	e8 70 02 00 00       	call   3aa <wait>
                printf(1, "\n");
 13a:	59                   	pop    %ecx
 13b:	5b                   	pop    %ebx
 13c:	68 68 08 00 00       	push   $0x868
 141:	6a 01                	push   $0x1
 143:	e8 c8 03 00 00       	call   510 <printf>
 148:	83 c4 10             	add    $0x10,%esp
 14b:	e9 0f ff ff ff       	jmp    5f <main+0x5f>

00000150 <strcpy>:
#include "user.h"
#include "x86.h"

char*
strcpy(char *s, const char *t)
{
 150:	55                   	push   %ebp
 151:	89 e5                	mov    %esp,%ebp
 153:	53                   	push   %ebx
 154:	8b 45 08             	mov    0x8(%ebp),%eax
 157:	8b 4d 0c             	mov    0xc(%ebp),%ecx
  char *os;

  os = s;
  while((*s++ = *t++) != 0)
 15a:	89 c2                	mov    %eax,%edx
 15c:	8d 74 26 00          	lea    0x0(%esi,%eiz,1),%esi
 160:	83 c1 01             	add    $0x1,%ecx
 163:	0f b6 59 ff          	movzbl -0x1(%ecx),%ebx
 167:	83 c2 01             	add    $0x1,%edx
 16a:	84 db                	test   %bl,%bl
 16c:	88 5a ff             	mov    %bl,-0x1(%edx)
 16f:	75 ef                	jne    160 <strcpy+0x10>
    ;
  return os;
}
 171:	5b                   	pop    %ebx
 172:	5d                   	pop    %ebp
 173:	c3                   	ret    
 174:	8d b6 00 00 00 00    	lea    0x0(%esi),%esi
 17a:	8d bf 00 00 00 00    	lea    0x0(%edi),%edi

00000180 <strcmp>:

int
strcmp(const char *p, const char *q)
{
 180:	55                   	push   %ebp
 181:	89 e5                	mov    %esp,%ebp
 183:	53                   	push   %ebx
 184:	8b 55 08             	mov    0x8(%ebp),%edx
 187:	8b 4d 0c             	mov    0xc(%ebp),%ecx
  while(*p && *p == *q)
 18a:	0f b6 02             	movzbl (%edx),%eax
 18d:	0f b6 19             	movzbl (%ecx),%ebx
 190:	84 c0                	test   %al,%al
 192:	75 1c                	jne    1b0 <strcmp+0x30>
 194:	eb 2a                	jmp    1c0 <strcmp+0x40>
 196:	8d 76 00             	lea    0x0(%esi),%esi
 199:	8d bc 27 00 00 00 00 	lea    0x0(%edi,%eiz,1),%edi
    p++, q++;
 1a0:	83 c2 01             	add    $0x1,%edx
  while(*p && *p == *q)
 1a3:	0f b6 02             	movzbl (%edx),%eax
    p++, q++;
 1a6:	83 c1 01             	add    $0x1,%ecx
 1a9:	0f b6 19             	movzbl (%ecx),%ebx
  while(*p && *p == *q)
 1ac:	84 c0                	test   %al,%al
 1ae:	74 10                	je     1c0 <strcmp+0x40>
 1b0:	38 d8                	cmp    %bl,%al
 1b2:	74 ec                	je     1a0 <strcmp+0x20>
  return (uchar)*p - (uchar)*q;
 1b4:	29 d8                	sub    %ebx,%eax
}
 1b6:	5b                   	pop    %ebx
 1b7:	5d                   	pop    %ebp
 1b8:	c3                   	ret    
 1b9:	8d b4 26 00 00 00 00 	lea    0x0(%esi,%eiz,1),%esi
 1c0:	31 c0                	xor    %eax,%eax
  return (uchar)*p - (uchar)*q;
 1c2:	29 d8                	sub    %ebx,%eax
}
 1c4:	5b                   	pop    %ebx
 1c5:	5d                   	pop    %ebp
 1c6:	c3                   	ret    
 1c7:	89 f6                	mov    %esi,%esi
 1c9:	8d bc 27 00 00 00 00 	lea    0x0(%edi,%eiz,1),%edi

000001d0 <strlen>:

uint
strlen(const char *s)
{
 1d0:	55                   	push   %ebp
 1d1:	89 e5                	mov    %esp,%ebp
 1d3:	8b 4d 08             	mov    0x8(%ebp),%ecx
  int n;

  for(n = 0; s[n]; n++)
 1d6:	80 39 00             	cmpb   $0x0,(%ecx)
 1d9:	74 15                	je     1f0 <strlen+0x20>
 1db:	31 d2                	xor    %edx,%edx
 1dd:	8d 76 00             	lea    0x0(%esi),%esi
 1e0:	83 c2 01             	add    $0x1,%edx
 1e3:	80 3c 11 00          	cmpb   $0x0,(%ecx,%edx,1)
 1e7:	89 d0                	mov    %edx,%eax
 1e9:	75 f5                	jne    1e0 <strlen+0x10>
    ;
  return n;
}
 1eb:	5d                   	pop    %ebp
 1ec:	c3                   	ret    
 1ed:	8d 76 00             	lea    0x0(%esi),%esi
  for(n = 0; s[n]; n++)
 1f0:	31 c0                	xor    %eax,%eax
}
 1f2:	5d                   	pop    %ebp
 1f3:	c3                   	ret    
 1f4:	8d b6 00 00 00 00    	lea    0x0(%esi),%esi
 1fa:	8d bf 00 00 00 00    	lea    0x0(%edi),%edi

00000200 <memset>:

void*
memset(void *dst, int c, uint n)
{
 200:	55                   	push   %ebp
 201:	89 e5                	mov    %esp,%ebp
 203:	57                   	push   %edi
 204:	8b 55 08             	mov    0x8(%ebp),%edx
}

static inline void
stosb(void *addr, int data, int cnt)
{
  asm volatile("cld; rep stosb" :
 207:	8b 4d 10             	mov    0x10(%ebp),%ecx
 20a:	8b 45 0c             	mov    0xc(%ebp),%eax
 20d:	89 d7                	mov    %edx,%edi
 20f:	fc                   	cld    
 210:	f3 aa                	rep stos %al,%es:(%edi)
  stosb(dst, c, n);
  return dst;
}
 212:	89 d0                	mov    %edx,%eax
 214:	5f                   	pop    %edi
 215:	5d                   	pop    %ebp
 216:	c3                   	ret    
 217:	89 f6                	mov    %esi,%esi
 219:	8d bc 27 00 00 00 00 	lea    0x0(%edi,%eiz,1),%edi

00000220 <strchr>:

char*
strchr(const char *s, char c)
{
 220:	55                   	push   %ebp
 221:	89 e5                	mov    %esp,%ebp
 223:	53                   	push   %ebx
 224:	8b 45 08             	mov    0x8(%ebp),%eax
 227:	8b 5d 0c             	mov    0xc(%ebp),%ebx
  for(; *s; s++)
 22a:	0f b6 10             	movzbl (%eax),%edx
 22d:	84 d2                	test   %dl,%dl
 22f:	74 1d                	je     24e <strchr+0x2e>
    if(*s == c)
 231:	38 d3                	cmp    %dl,%bl
 233:	89 d9                	mov    %ebx,%ecx
 235:	75 0d                	jne    244 <strchr+0x24>
 237:	eb 17                	jmp    250 <strchr+0x30>
 239:	8d b4 26 00 00 00 00 	lea    0x0(%esi,%eiz,1),%esi
 240:	38 ca                	cmp    %cl,%dl
 242:	74 0c                	je     250 <strchr+0x30>
  for(; *s; s++)
 244:	83 c0 01             	add    $0x1,%eax
 247:	0f b6 10             	movzbl (%eax),%edx
 24a:	84 d2                	test   %dl,%dl
 24c:	75 f2                	jne    240 <strchr+0x20>
      return (char*)s;
  return 0;
 24e:	31 c0                	xor    %eax,%eax
}
 250:	5b                   	pop    %ebx
 251:	5d                   	pop    %ebp
 252:	c3                   	ret    
 253:	8d b6 00 00 00 00    	lea    0x0(%esi),%esi
 259:	8d bc 27 00 00 00 00 	lea    0x0(%edi,%eiz,1),%edi

00000260 <gets>:

char*
gets(char *buf, int max)
{
 260:	55                   	push   %ebp
 261:	89 e5                	mov    %esp,%ebp
 263:	57                   	push   %edi
 264:	56                   	push   %esi
 265:	53                   	push   %ebx
  int i, cc;
  char c;

  for(i=0; i+1 < max; ){
 266:	31 f6                	xor    %esi,%esi
 268:	89 f3                	mov    %esi,%ebx
{
 26a:	83 ec 1c             	sub    $0x1c,%esp
 26d:	8b 7d 08             	mov    0x8(%ebp),%edi
  for(i=0; i+1 < max; ){
 270:	eb 2f                	jmp    2a1 <gets+0x41>
 272:	8d b6 00 00 00 00    	lea    0x0(%esi),%esi
    cc = read(0, &c, 1);
 278:	8d 45 e7             	lea    -0x19(%ebp),%eax
 27b:	83 ec 04             	sub    $0x4,%esp
 27e:	6a 01                	push   $0x1
 280:	50                   	push   %eax
 281:	6a 00                	push   $0x0
 283:	e8 32 01 00 00       	call   3ba <read>
    if(cc < 1)
 288:	83 c4 10             	add    $0x10,%esp
 28b:	85 c0                	test   %eax,%eax
 28d:	7e 1c                	jle    2ab <gets+0x4b>
      break;
    buf[i++] = c;
 28f:	0f b6 45 e7          	movzbl -0x19(%ebp),%eax
 293:	83 c7 01             	add    $0x1,%edi
 296:	88 47 ff             	mov    %al,-0x1(%edi)
    if(c == '\n' || c == '\r')
 299:	3c 0a                	cmp    $0xa,%al
 29b:	74 23                	je     2c0 <gets+0x60>
 29d:	3c 0d                	cmp    $0xd,%al
 29f:	74 1f                	je     2c0 <gets+0x60>
  for(i=0; i+1 < max; ){
 2a1:	83 c3 01             	add    $0x1,%ebx
 2a4:	3b 5d 0c             	cmp    0xc(%ebp),%ebx
 2a7:	89 fe                	mov    %edi,%esi
 2a9:	7c cd                	jl     278 <gets+0x18>
 2ab:	89 f3                	mov    %esi,%ebx
      break;
  }
  buf[i] = '\0';
  return buf;
}
 2ad:	8b 45 08             	mov    0x8(%ebp),%eax
  buf[i] = '\0';
 2b0:	c6 03 00             	movb   $0x0,(%ebx)
}
 2b3:	8d 65 f4             	lea    -0xc(%ebp),%esp
 2b6:	5b                   	pop    %ebx
 2b7:	5e                   	pop    %esi
 2b8:	5f                   	pop    %edi
 2b9:	5d                   	pop    %ebp
 2ba:	c3                   	ret    
 2bb:	90                   	nop
 2bc:	8d 74 26 00          	lea    0x0(%esi,%eiz,1),%esi
 2c0:	8b 75 08             	mov    0x8(%ebp),%esi
 2c3:	8b 45 08             	mov    0x8(%ebp),%eax
 2c6:	01 de                	add    %ebx,%esi
 2c8:	89 f3                	mov    %esi,%ebx
  buf[i] = '\0';
 2ca:	c6 03 00             	movb   $0x0,(%ebx)
}
 2cd:	8d 65 f4             	lea    -0xc(%ebp),%esp
 2d0:	5b                   	pop    %ebx
 2d1:	5e                   	pop    %esi
 2d2:	5f                   	pop    %edi
 2d3:	5d                   	pop    %ebp
 2d4:	c3                   	ret    
 2d5:	8d 74 26 00          	lea    0x0(%esi,%eiz,1),%esi
 2d9:	8d bc 27 00 00 00 00 	lea    0x0(%edi,%eiz,1),%edi

000002e0 <stat>:

int
stat(const char *n, struct stat *st)
{
 2e0:	55                   	push   %ebp
 2e1:	89 e5                	mov    %esp,%ebp
 2e3:	56                   	push   %esi
 2e4:	53                   	push   %ebx
  int fd;
  int r;

  fd = open(n, O_RDONLY);
 2e5:	83 ec 08             	sub    $0x8,%esp
 2e8:	6a 00                	push   $0x0
 2ea:	ff 75 08             	pushl  0x8(%ebp)
 2ed:	e8 f0 00 00 00       	call   3e2 <open>
  if(fd < 0)
 2f2:	83 c4 10             	add    $0x10,%esp
 2f5:	85 c0                	test   %eax,%eax
 2f7:	78 27                	js     320 <stat+0x40>
    return -1;
  r = fstat(fd, st);
 2f9:	83 ec 08             	sub    $0x8,%esp
 2fc:	ff 75 0c             	pushl  0xc(%ebp)
 2ff:	89 c3                	mov    %eax,%ebx
 301:	50                   	push   %eax
 302:	e8 f3 00 00 00       	call   3fa <fstat>
  close(fd);
 307:	89 1c 24             	mov    %ebx,(%esp)
  r = fstat(fd, st);
 30a:	89 c6                	mov    %eax,%esi
  close(fd);
 30c:	e8 b9 00 00 00       	call   3ca <close>
  return r;
 311:	83 c4 10             	add    $0x10,%esp
}
 314:	8d 65 f8             	lea    -0x8(%ebp),%esp
 317:	89 f0                	mov    %esi,%eax
 319:	5b                   	pop    %ebx
 31a:	5e                   	pop    %esi
 31b:	5d                   	pop    %ebp
 31c:	c3                   	ret    
 31d:	8d 76 00             	lea    0x0(%esi),%esi
    return -1;
 320:	be ff ff ff ff       	mov    $0xffffffff,%esi
 325:	eb ed                	jmp    314 <stat+0x34>
 327:	89 f6                	mov    %esi,%esi
 329:	8d bc 27 00 00 00 00 	lea    0x0(%edi,%eiz,1),%edi

00000330 <atoi>:

int
atoi(const char *s)
{
 330:	55                   	push   %ebp
 331:	89 e5                	mov    %esp,%ebp
 333:	53                   	push   %ebx
 334:	8b 4d 08             	mov    0x8(%ebp),%ecx
  int n;

  n = 0;
  while('0' <= *s && *s <= '9')
 337:	0f be 11             	movsbl (%ecx),%edx
 33a:	8d 42 d0             	lea    -0x30(%edx),%eax
 33d:	3c 09                	cmp    $0x9,%al
  n = 0;
 33f:	b8 00 00 00 00       	mov    $0x0,%eax
  while('0' <= *s && *s <= '9')
 344:	77 1f                	ja     365 <atoi+0x35>
 346:	8d 76 00             	lea    0x0(%esi),%esi
 349:	8d bc 27 00 00 00 00 	lea    0x0(%edi,%eiz,1),%edi
    n = n*10 + *s++ - '0';
 350:	8d 04 80             	lea    (%eax,%eax,4),%eax
 353:	83 c1 01             	add    $0x1,%ecx
 356:	8d 44 42 d0          	lea    -0x30(%edx,%eax,2),%eax
  while('0' <= *s && *s <= '9')
 35a:	0f be 11             	movsbl (%ecx),%edx
 35d:	8d 5a d0             	lea    -0x30(%edx),%ebx
 360:	80 fb 09             	cmp    $0x9,%bl
 363:	76 eb                	jbe    350 <atoi+0x20>
  return n;
}
 365:	5b                   	pop    %ebx
 366:	5d                   	pop    %ebp
 367:	c3                   	ret    
 368:	90                   	nop
 369:	8d b4 26 00 00 00 00 	lea    0x0(%esi,%eiz,1),%esi

00000370 <memmove>:

void*
memmove(void *vdst, const void *vsrc, int n)
{
 370:	55                   	push   %ebp
 371:	89 e5                	mov    %esp,%ebp
 373:	56                   	push   %esi
 374:	53                   	push   %ebx
 375:	8b 5d 10             	mov    0x10(%ebp),%ebx
 378:	8b 45 08             	mov    0x8(%ebp),%eax
 37b:	8b 75 0c             	mov    0xc(%ebp),%esi
  char *dst;
  const char *src;

  dst = vdst;
  src = vsrc;
  while(n-- > 0)
 37e:	85 db                	test   %ebx,%ebx
 380:	7e 14                	jle    396 <memmove+0x26>
 382:	31 d2                	xor    %edx,%edx
 384:	8d 74 26 00          	lea    0x0(%esi,%eiz,1),%esi
    *dst++ = *src++;
 388:	0f b6 0c 16          	movzbl (%esi,%edx,1),%ecx
 38c:	88 0c 10             	mov    %cl,(%eax,%edx,1)
 38f:	83 c2 01             	add    $0x1,%edx
  while(n-- > 0)
 392:	39 d3                	cmp    %edx,%ebx
 394:	75 f2                	jne    388 <memmove+0x18>
  return vdst;
}
 396:	5b                   	pop    %ebx
 397:	5e                   	pop    %esi
 398:	5d                   	pop    %ebp
 399:	c3                   	ret    

0000039a <fork>:
 39a:	b8 01 00 00 00       	mov    $0x1,%eax
 39f:	cd 40                	int    $0x40
 3a1:	c3                   	ret    

000003a2 <exit>:
 3a2:	b8 02 00 00 00       	mov    $0x2,%eax
 3a7:	cd 40                	int    $0x40
 3a9:	c3                   	ret    

000003aa <wait>:
 3aa:	b8 03 00 00 00       	mov    $0x3,%eax
 3af:	cd 40                	int    $0x40
 3b1:	c3                   	ret    

000003b2 <pipe>:
 3b2:	b8 04 00 00 00       	mov    $0x4,%eax
 3b7:	cd 40                	int    $0x40
 3b9:	c3                   	ret    

000003ba <read>:
 3ba:	b8 05 00 00 00       	mov    $0x5,%eax
 3bf:	cd 40                	int    $0x40
 3c1:	c3                   	ret    

000003c2 <write>:
 3c2:	b8 10 00 00 00       	mov    $0x10,%eax
 3c7:	cd 40                	int    $0x40
 3c9:	c3                   	ret    

000003ca <close>:
 3ca:	b8 15 00 00 00       	mov    $0x15,%eax
 3cf:	cd 40                	int    $0x40
 3d1:	c3                   	ret    

000003d2 <kill>:
 3d2:	b8 06 00 00 00       	mov    $0x6,%eax
 3d7:	cd 40                	int    $0x40
 3d9:	c3                   	ret    

000003da <exec>:
 3da:	b8 07 00 00 00       	mov    $0x7,%eax
 3df:	cd 40                	int    $0x40
 3e1:	c3                   	ret    

000003e2 <open>:
 3e2:	b8 0f 00 00 00       	mov    $0xf,%eax
 3e7:	cd 40                	int    $0x40
 3e9:	c3                   	ret    

000003ea <mknod>:
 3ea:	b8 11 00 00 00       	mov    $0x11,%eax
 3ef:	cd 40                	int    $0x40
 3f1:	c3                   	ret    

000003f2 <unlink>:
 3f2:	b8 12 00 00 00       	mov    $0x12,%eax
 3f7:	cd 40                	int    $0x40
 3f9:	c3                   	ret    

000003fa <fstat>:
 3fa:	b8 08 00 00 00       	mov    $0x8,%eax
 3ff:	cd 40                	int    $0x40
 401:	c3                   	ret    

00000402 <link>:
 402:	b8 13 00 00 00       	mov    $0x13,%eax
 407:	cd 40                	int    $0x40
 409:	c3                   	ret    

0000040a <mkdir>:
 40a:	b8 14 00 00 00       	mov    $0x14,%eax
 40f:	cd 40                	int    $0x40
 411:	c3                   	ret    

00000412 <chdir>:
 412:	b8 09 00 00 00       	mov    $0x9,%eax
 417:	cd 40                	int    $0x40
 419:	c3                   	ret    

0000041a <dup>:
 41a:	b8 0a 00 00 00       	mov    $0xa,%eax
 41f:	cd 40                	int    $0x40
 421:	c3                   	ret    

00000422 <getpid>:
 422:	b8 0b 00 00 00       	mov    $0xb,%eax
 427:	cd 40                	int    $0x40
 429:	c3                   	ret    

0000042a <sbrk>:
 42a:	b8 0c 00 00 00       	mov    $0xc,%eax
 42f:	cd 40                	int    $0x40
 431:	c3                   	ret    

00000432 <sleep>:
 432:	b8 0d 00 00 00       	mov    $0xd,%eax
 437:	cd 40                	int    $0x40
 439:	c3                   	ret    

0000043a <uptime>:
 43a:	b8 0e 00 00 00       	mov    $0xe,%eax
 43f:	cd 40                	int    $0x40
 441:	c3                   	ret    

00000442 <changeQueueNum>:
 442:	b8 16 00 00 00       	mov    $0x16,%eax
 447:	cd 40                	int    $0x40
 449:	c3                   	ret    

0000044a <evalTicket>:
 44a:	b8 17 00 00 00       	mov    $0x17,%eax
 44f:	cd 40                	int    $0x40
 451:	c3                   	ret    

00000452 <evalRemainingPriority>:
 452:	b8 18 00 00 00       	mov    $0x18,%eax
 457:	cd 40                	int    $0x40
 459:	c3                   	ret    

0000045a <printInfo>:
 45a:	b8 19 00 00 00       	mov    $0x19,%eax
 45f:	cd 40                	int    $0x40
 461:	c3                   	ret    
 462:	66 90                	xchg   %ax,%ax
 464:	66 90                	xchg   %ax,%ax
 466:	66 90                	xchg   %ax,%ax
 468:	66 90                	xchg   %ax,%ax
 46a:	66 90                	xchg   %ax,%ax
 46c:	66 90                	xchg   %ax,%ax
 46e:	66 90                	xchg   %ax,%ax

00000470 <printint>:
  write(fd, &c, 1);
}

static void
printint(int fd, int xx, int base, int sgn)
{
 470:	55                   	push   %ebp
 471:	89 e5                	mov    %esp,%ebp
 473:	57                   	push   %edi
 474:	56                   	push   %esi
 475:	53                   	push   %ebx
 476:	83 ec 3c             	sub    $0x3c,%esp
  char buf[16];
  int i, neg;
  uint x;

  neg = 0;
  if(sgn && xx < 0){
 479:	85 d2                	test   %edx,%edx
{
 47b:	89 45 c0             	mov    %eax,-0x40(%ebp)
    neg = 1;
    x = -xx;
 47e:	89 d0                	mov    %edx,%eax
  if(sgn && xx < 0){
 480:	79 76                	jns    4f8 <printint+0x88>
 482:	f6 45 08 01          	testb  $0x1,0x8(%ebp)
 486:	74 70                	je     4f8 <printint+0x88>
    x = -xx;
 488:	f7 d8                	neg    %eax
    neg = 1;
 48a:	c7 45 c4 01 00 00 00 	movl   $0x1,-0x3c(%ebp)
  } else {
    x = xx;
  }

  i = 0;
 491:	31 f6                	xor    %esi,%esi
 493:	8d 5d d7             	lea    -0x29(%ebp),%ebx
 496:	eb 0a                	jmp    4a2 <printint+0x32>
 498:	90                   	nop
 499:	8d b4 26 00 00 00 00 	lea    0x0(%esi,%eiz,1),%esi
  do{
    buf[i++] = digits[x % base];
 4a0:	89 fe                	mov    %edi,%esi
 4a2:	31 d2                	xor    %edx,%edx
 4a4:	8d 7e 01             	lea    0x1(%esi),%edi
 4a7:	f7 f1                	div    %ecx
 4a9:	0f b6 92 78 08 00 00 	movzbl 0x878(%edx),%edx
  }while((x /= base) != 0);
 4b0:	85 c0                	test   %eax,%eax
    buf[i++] = digits[x % base];
 4b2:	88 14 3b             	mov    %dl,(%ebx,%edi,1)
  }while((x /= base) != 0);
 4b5:	75 e9                	jne    4a0 <printint+0x30>
  if(neg)
 4b7:	8b 45 c4             	mov    -0x3c(%ebp),%eax
 4ba:	85 c0                	test   %eax,%eax
 4bc:	74 08                	je     4c6 <printint+0x56>
    buf[i++] = '-';
 4be:	c6 44 3d d8 2d       	movb   $0x2d,-0x28(%ebp,%edi,1)
 4c3:	8d 7e 02             	lea    0x2(%esi),%edi
 4c6:	8d 74 3d d7          	lea    -0x29(%ebp,%edi,1),%esi
 4ca:	8b 7d c0             	mov    -0x40(%ebp),%edi
 4cd:	8d 76 00             	lea    0x0(%esi),%esi
 4d0:	0f b6 06             	movzbl (%esi),%eax
  write(fd, &c, 1);
 4d3:	83 ec 04             	sub    $0x4,%esp
 4d6:	83 ee 01             	sub    $0x1,%esi
 4d9:	6a 01                	push   $0x1
 4db:	53                   	push   %ebx
 4dc:	57                   	push   %edi
 4dd:	88 45 d7             	mov    %al,-0x29(%ebp)
 4e0:	e8 dd fe ff ff       	call   3c2 <write>

  while(--i >= 0)
 4e5:	83 c4 10             	add    $0x10,%esp
 4e8:	39 de                	cmp    %ebx,%esi
 4ea:	75 e4                	jne    4d0 <printint+0x60>
    putc(fd, buf[i]);
}
 4ec:	8d 65 f4             	lea    -0xc(%ebp),%esp
 4ef:	5b                   	pop    %ebx
 4f0:	5e                   	pop    %esi
 4f1:	5f                   	pop    %edi
 4f2:	5d                   	pop    %ebp
 4f3:	c3                   	ret    
 4f4:	8d 74 26 00          	lea    0x0(%esi,%eiz,1),%esi
  neg = 0;
 4f8:	c7 45 c4 00 00 00 00 	movl   $0x0,-0x3c(%ebp)
 4ff:	eb 90                	jmp    491 <printint+0x21>
 501:	eb 0d                	jmp    510 <printf>
 503:	90                   	nop
 504:	90                   	nop
 505:	90                   	nop
 506:	90                   	nop
 507:	90                   	nop
 508:	90                   	nop
 509:	90                   	nop
 50a:	90                   	nop
 50b:	90                   	nop
 50c:	90                   	nop
 50d:	90                   	nop
 50e:	90                   	nop
 50f:	90                   	nop

00000510 <printf>:

// Print to the given fd. Only understands %d, %x, %p, %s.
void
printf(int fd, const char *fmt, ...)
{
 510:	55                   	push   %ebp
 511:	89 e5                	mov    %esp,%ebp
 513:	57                   	push   %edi
 514:	56                   	push   %esi
 515:	53                   	push   %ebx
 516:	83 ec 2c             	sub    $0x2c,%esp
  int c, i, state;
  uint *ap;

  state = 0;
  ap = (uint*)(void*)&fmt + 1;
  for(i = 0; fmt[i]; i++){
 519:	8b 75 0c             	mov    0xc(%ebp),%esi
 51c:	0f b6 1e             	movzbl (%esi),%ebx
 51f:	84 db                	test   %bl,%bl
 521:	0f 84 b3 00 00 00    	je     5da <printf+0xca>
  ap = (uint*)(void*)&fmt + 1;
 527:	8d 45 10             	lea    0x10(%ebp),%eax
 52a:	83 c6 01             	add    $0x1,%esi
  state = 0;
 52d:	31 ff                	xor    %edi,%edi
  ap = (uint*)(void*)&fmt + 1;
 52f:	89 45 d4             	mov    %eax,-0x2c(%ebp)
 532:	eb 2f                	jmp    563 <printf+0x53>
 534:	8d 74 26 00          	lea    0x0(%esi,%eiz,1),%esi
    c = fmt[i] & 0xff;
    if(state == 0){
      if(c == '%'){
 538:	83 f8 25             	cmp    $0x25,%eax
 53b:	0f 84 a7 00 00 00    	je     5e8 <printf+0xd8>
  write(fd, &c, 1);
 541:	8d 45 e2             	lea    -0x1e(%ebp),%eax
 544:	83 ec 04             	sub    $0x4,%esp
 547:	88 5d e2             	mov    %bl,-0x1e(%ebp)
 54a:	6a 01                	push   $0x1
 54c:	50                   	push   %eax
 54d:	ff 75 08             	pushl  0x8(%ebp)
 550:	e8 6d fe ff ff       	call   3c2 <write>
 555:	83 c4 10             	add    $0x10,%esp
 558:	83 c6 01             	add    $0x1,%esi
  for(i = 0; fmt[i]; i++){
 55b:	0f b6 5e ff          	movzbl -0x1(%esi),%ebx
 55f:	84 db                	test   %bl,%bl
 561:	74 77                	je     5da <printf+0xca>
    if(state == 0){
 563:	85 ff                	test   %edi,%edi
    c = fmt[i] & 0xff;
 565:	0f be cb             	movsbl %bl,%ecx
 568:	0f b6 c3             	movzbl %bl,%eax
    if(state == 0){
 56b:	74 cb                	je     538 <printf+0x28>
        state = '%';
      } else {
        putc(fd, c);
      }
    } else if(state == '%'){
 56d:	83 ff 25             	cmp    $0x25,%edi
 570:	75 e6                	jne    558 <printf+0x48>
      if(c == 'd'){
 572:	83 f8 64             	cmp    $0x64,%eax
 575:	0f 84 05 01 00 00    	je     680 <printf+0x170>
        printint(fd, *ap, 10, 1);
        ap++;
      } else if(c == 'x' || c == 'p'){
 57b:	81 e1 f7 00 00 00    	and    $0xf7,%ecx
 581:	83 f9 70             	cmp    $0x70,%ecx
 584:	74 72                	je     5f8 <printf+0xe8>
        printint(fd, *ap, 16, 0);
        ap++;
      } else if(c == 's'){
 586:	83 f8 73             	cmp    $0x73,%eax
 589:	0f 84 99 00 00 00    	je     628 <printf+0x118>
          s = "(null)";
        while(*s != 0){
          putc(fd, *s);
          s++;
        }
      } else if(c == 'c'){
 58f:	83 f8 63             	cmp    $0x63,%eax
 592:	0f 84 08 01 00 00    	je     6a0 <printf+0x190>
        putc(fd, *ap);
        ap++;
      } else if(c == '%'){
 598:	83 f8 25             	cmp    $0x25,%eax
 59b:	0f 84 ef 00 00 00    	je     690 <printf+0x180>
  write(fd, &c, 1);
 5a1:	8d 45 e7             	lea    -0x19(%ebp),%eax
 5a4:	83 ec 04             	sub    $0x4,%esp
 5a7:	c6 45 e7 25          	movb   $0x25,-0x19(%ebp)
 5ab:	6a 01                	push   $0x1
 5ad:	50                   	push   %eax
 5ae:	ff 75 08             	pushl  0x8(%ebp)
 5b1:	e8 0c fe ff ff       	call   3c2 <write>
 5b6:	83 c4 0c             	add    $0xc,%esp
 5b9:	8d 45 e6             	lea    -0x1a(%ebp),%eax
 5bc:	88 5d e6             	mov    %bl,-0x1a(%ebp)
 5bf:	6a 01                	push   $0x1
 5c1:	50                   	push   %eax
 5c2:	ff 75 08             	pushl  0x8(%ebp)
 5c5:	83 c6 01             	add    $0x1,%esi
      } else {
        // Unknown % sequence.  Print it to draw attention.
        putc(fd, '%');
        putc(fd, c);
      }
      state = 0;
 5c8:	31 ff                	xor    %edi,%edi
  write(fd, &c, 1);
 5ca:	e8 f3 fd ff ff       	call   3c2 <write>
  for(i = 0; fmt[i]; i++){
 5cf:	0f b6 5e ff          	movzbl -0x1(%esi),%ebx
  write(fd, &c, 1);
 5d3:	83 c4 10             	add    $0x10,%esp
  for(i = 0; fmt[i]; i++){
 5d6:	84 db                	test   %bl,%bl
 5d8:	75 89                	jne    563 <printf+0x53>
    }
  }
}
 5da:	8d 65 f4             	lea    -0xc(%ebp),%esp
 5dd:	5b                   	pop    %ebx
 5de:	5e                   	pop    %esi
 5df:	5f                   	pop    %edi
 5e0:	5d                   	pop    %ebp
 5e1:	c3                   	ret    
 5e2:	8d b6 00 00 00 00    	lea    0x0(%esi),%esi
        state = '%';
 5e8:	bf 25 00 00 00       	mov    $0x25,%edi
 5ed:	e9 66 ff ff ff       	jmp    558 <printf+0x48>
 5f2:	8d b6 00 00 00 00    	lea    0x0(%esi),%esi
        printint(fd, *ap, 16, 0);
 5f8:	83 ec 0c             	sub    $0xc,%esp
 5fb:	b9 10 00 00 00       	mov    $0x10,%ecx
 600:	6a 00                	push   $0x0
 602:	8b 7d d4             	mov    -0x2c(%ebp),%edi
 605:	8b 45 08             	mov    0x8(%ebp),%eax
 608:	8b 17                	mov    (%edi),%edx
 60a:	e8 61 fe ff ff       	call   470 <printint>
        ap++;
 60f:	89 f8                	mov    %edi,%eax
 611:	83 c4 10             	add    $0x10,%esp
      state = 0;
 614:	31 ff                	xor    %edi,%edi
        ap++;
 616:	83 c0 04             	add    $0x4,%eax
 619:	89 45 d4             	mov    %eax,-0x2c(%ebp)
 61c:	e9 37 ff ff ff       	jmp    558 <printf+0x48>
 621:	8d b4 26 00 00 00 00 	lea    0x0(%esi,%eiz,1),%esi
        s = (char*)*ap;
 628:	8b 45 d4             	mov    -0x2c(%ebp),%eax
 62b:	8b 08                	mov    (%eax),%ecx
        ap++;
 62d:	83 c0 04             	add    $0x4,%eax
 630:	89 45 d4             	mov    %eax,-0x2c(%ebp)
        if(s == 0)
 633:	85 c9                	test   %ecx,%ecx
 635:	0f 84 8e 00 00 00    	je     6c9 <printf+0x1b9>
        while(*s != 0){
 63b:	0f b6 01             	movzbl (%ecx),%eax
      state = 0;
 63e:	31 ff                	xor    %edi,%edi
        s = (char*)*ap;
 640:	89 cb                	mov    %ecx,%ebx
        while(*s != 0){
 642:	84 c0                	test   %al,%al
 644:	0f 84 0e ff ff ff    	je     558 <printf+0x48>
 64a:	89 75 d0             	mov    %esi,-0x30(%ebp)
 64d:	89 de                	mov    %ebx,%esi
 64f:	8b 5d 08             	mov    0x8(%ebp),%ebx
 652:	8d 7d e3             	lea    -0x1d(%ebp),%edi
 655:	8d 76 00             	lea    0x0(%esi),%esi
  write(fd, &c, 1);
 658:	83 ec 04             	sub    $0x4,%esp
          s++;
 65b:	83 c6 01             	add    $0x1,%esi
 65e:	88 45 e3             	mov    %al,-0x1d(%ebp)
  write(fd, &c, 1);
 661:	6a 01                	push   $0x1
 663:	57                   	push   %edi
 664:	53                   	push   %ebx
 665:	e8 58 fd ff ff       	call   3c2 <write>
        while(*s != 0){
 66a:	0f b6 06             	movzbl (%esi),%eax
 66d:	83 c4 10             	add    $0x10,%esp
 670:	84 c0                	test   %al,%al
 672:	75 e4                	jne    658 <printf+0x148>
 674:	8b 75 d0             	mov    -0x30(%ebp),%esi
      state = 0;
 677:	31 ff                	xor    %edi,%edi
 679:	e9 da fe ff ff       	jmp    558 <printf+0x48>
 67e:	66 90                	xchg   %ax,%ax
        printint(fd, *ap, 10, 1);
 680:	83 ec 0c             	sub    $0xc,%esp
 683:	b9 0a 00 00 00       	mov    $0xa,%ecx
 688:	6a 01                	push   $0x1
 68a:	e9 73 ff ff ff       	jmp    602 <printf+0xf2>
 68f:	90                   	nop
  write(fd, &c, 1);
 690:	83 ec 04             	sub    $0x4,%esp
 693:	88 5d e5             	mov    %bl,-0x1b(%ebp)
 696:	8d 45 e5             	lea    -0x1b(%ebp),%eax
 699:	6a 01                	push   $0x1
 69b:	e9 21 ff ff ff       	jmp    5c1 <printf+0xb1>
        putc(fd, *ap);
 6a0:	8b 7d d4             	mov    -0x2c(%ebp),%edi
  write(fd, &c, 1);
 6a3:	83 ec 04             	sub    $0x4,%esp
        putc(fd, *ap);
 6a6:	8b 07                	mov    (%edi),%eax
  write(fd, &c, 1);
 6a8:	6a 01                	push   $0x1
        ap++;
 6aa:	83 c7 04             	add    $0x4,%edi
        putc(fd, *ap);
 6ad:	88 45 e4             	mov    %al,-0x1c(%ebp)
  write(fd, &c, 1);
 6b0:	8d 45 e4             	lea    -0x1c(%ebp),%eax
 6b3:	50                   	push   %eax
 6b4:	ff 75 08             	pushl  0x8(%ebp)
 6b7:	e8 06 fd ff ff       	call   3c2 <write>
        ap++;
 6bc:	89 7d d4             	mov    %edi,-0x2c(%ebp)
 6bf:	83 c4 10             	add    $0x10,%esp
      state = 0;
 6c2:	31 ff                	xor    %edi,%edi
 6c4:	e9 8f fe ff ff       	jmp    558 <printf+0x48>
          s = "(null)";
 6c9:	bb 70 08 00 00       	mov    $0x870,%ebx
        while(*s != 0){
 6ce:	b8 28 00 00 00       	mov    $0x28,%eax
 6d3:	e9 72 ff ff ff       	jmp    64a <printf+0x13a>
 6d8:	66 90                	xchg   %ax,%ax
 6da:	66 90                	xchg   %ax,%ax
 6dc:	66 90                	xchg   %ax,%ax
 6de:	66 90                	xchg   %ax,%ax

000006e0 <free>:
 6e0:	55                   	push   %ebp
 6e1:	a1 28 0b 00 00       	mov    0xb28,%eax
 6e6:	89 e5                	mov    %esp,%ebp
 6e8:	57                   	push   %edi
 6e9:	56                   	push   %esi
 6ea:	53                   	push   %ebx
 6eb:	8b 5d 08             	mov    0x8(%ebp),%ebx
 6ee:	8d 4b f8             	lea    -0x8(%ebx),%ecx
 6f1:	8d b4 26 00 00 00 00 	lea    0x0(%esi,%eiz,1),%esi
 6f8:	39 c8                	cmp    %ecx,%eax
 6fa:	8b 10                	mov    (%eax),%edx
 6fc:	73 32                	jae    730 <free+0x50>
 6fe:	39 d1                	cmp    %edx,%ecx
 700:	72 04                	jb     706 <free+0x26>
 702:	39 d0                	cmp    %edx,%eax
 704:	72 32                	jb     738 <free+0x58>
 706:	8b 73 fc             	mov    -0x4(%ebx),%esi
 709:	8d 3c f1             	lea    (%ecx,%esi,8),%edi
 70c:	39 fa                	cmp    %edi,%edx
 70e:	74 30                	je     740 <free+0x60>
 710:	89 53 f8             	mov    %edx,-0x8(%ebx)
 713:	8b 50 04             	mov    0x4(%eax),%edx
 716:	8d 34 d0             	lea    (%eax,%edx,8),%esi
 719:	39 f1                	cmp    %esi,%ecx
 71b:	74 3a                	je     757 <free+0x77>
 71d:	89 08                	mov    %ecx,(%eax)
 71f:	a3 28 0b 00 00       	mov    %eax,0xb28
 724:	5b                   	pop    %ebx
 725:	5e                   	pop    %esi
 726:	5f                   	pop    %edi
 727:	5d                   	pop    %ebp
 728:	c3                   	ret    
 729:	8d b4 26 00 00 00 00 	lea    0x0(%esi,%eiz,1),%esi
 730:	39 d0                	cmp    %edx,%eax
 732:	72 04                	jb     738 <free+0x58>
 734:	39 d1                	cmp    %edx,%ecx
 736:	72 ce                	jb     706 <free+0x26>
 738:	89 d0                	mov    %edx,%eax
 73a:	eb bc                	jmp    6f8 <free+0x18>
 73c:	8d 74 26 00          	lea    0x0(%esi,%eiz,1),%esi
 740:	03 72 04             	add    0x4(%edx),%esi
 743:	89 73 fc             	mov    %esi,-0x4(%ebx)
 746:	8b 10                	mov    (%eax),%edx
 748:	8b 12                	mov    (%edx),%edx
 74a:	89 53 f8             	mov    %edx,-0x8(%ebx)
 74d:	8b 50 04             	mov    0x4(%eax),%edx
 750:	8d 34 d0             	lea    (%eax,%edx,8),%esi
 753:	39 f1                	cmp    %esi,%ecx
 755:	75 c6                	jne    71d <free+0x3d>
 757:	03 53 fc             	add    -0x4(%ebx),%edx
 75a:	a3 28 0b 00 00       	mov    %eax,0xb28
 75f:	89 50 04             	mov    %edx,0x4(%eax)
 762:	8b 53 f8             	mov    -0x8(%ebx),%edx
 765:	89 10                	mov    %edx,(%eax)
 767:	5b                   	pop    %ebx
 768:	5e                   	pop    %esi
 769:	5f                   	pop    %edi
 76a:	5d                   	pop    %ebp
 76b:	c3                   	ret    
 76c:	8d 74 26 00          	lea    0x0(%esi,%eiz,1),%esi

00000770 <malloc>:
 770:	55                   	push   %ebp
 771:	89 e5                	mov    %esp,%ebp
 773:	57                   	push   %edi
 774:	56                   	push   %esi
 775:	53                   	push   %ebx
 776:	83 ec 0c             	sub    $0xc,%esp
 779:	8b 45 08             	mov    0x8(%ebp),%eax
 77c:	8b 15 28 0b 00 00    	mov    0xb28,%edx
 782:	8d 78 07             	lea    0x7(%eax),%edi
 785:	c1 ef 03             	shr    $0x3,%edi
 788:	83 c7 01             	add    $0x1,%edi
 78b:	85 d2                	test   %edx,%edx
 78d:	0f 84 9d 00 00 00    	je     830 <malloc+0xc0>
 793:	8b 02                	mov    (%edx),%eax
 795:	8b 48 04             	mov    0x4(%eax),%ecx
 798:	39 cf                	cmp    %ecx,%edi
 79a:	76 6c                	jbe    808 <malloc+0x98>
 79c:	81 ff 00 10 00 00    	cmp    $0x1000,%edi
 7a2:	bb 00 10 00 00       	mov    $0x1000,%ebx
 7a7:	0f 43 df             	cmovae %edi,%ebx
 7aa:	8d 34 dd 00 00 00 00 	lea    0x0(,%ebx,8),%esi
 7b1:	eb 0e                	jmp    7c1 <malloc+0x51>
 7b3:	90                   	nop
 7b4:	8d 74 26 00          	lea    0x0(%esi,%eiz,1),%esi
 7b8:	8b 02                	mov    (%edx),%eax
 7ba:	8b 48 04             	mov    0x4(%eax),%ecx
 7bd:	39 f9                	cmp    %edi,%ecx
 7bf:	73 47                	jae    808 <malloc+0x98>
 7c1:	39 05 28 0b 00 00    	cmp    %eax,0xb28
 7c7:	89 c2                	mov    %eax,%edx
 7c9:	75 ed                	jne    7b8 <malloc+0x48>
 7cb:	83 ec 0c             	sub    $0xc,%esp
 7ce:	56                   	push   %esi
 7cf:	e8 56 fc ff ff       	call   42a <sbrk>
 7d4:	83 c4 10             	add    $0x10,%esp
 7d7:	83 f8 ff             	cmp    $0xffffffff,%eax
 7da:	74 1c                	je     7f8 <malloc+0x88>
 7dc:	89 58 04             	mov    %ebx,0x4(%eax)
 7df:	83 ec 0c             	sub    $0xc,%esp
 7e2:	83 c0 08             	add    $0x8,%eax
 7e5:	50                   	push   %eax
 7e6:	e8 f5 fe ff ff       	call   6e0 <free>
 7eb:	8b 15 28 0b 00 00    	mov    0xb28,%edx
 7f1:	83 c4 10             	add    $0x10,%esp
 7f4:	85 d2                	test   %edx,%edx
 7f6:	75 c0                	jne    7b8 <malloc+0x48>
 7f8:	8d 65 f4             	lea    -0xc(%ebp),%esp
 7fb:	31 c0                	xor    %eax,%eax
 7fd:	5b                   	pop    %ebx
 7fe:	5e                   	pop    %esi
 7ff:	5f                   	pop    %edi
 800:	5d                   	pop    %ebp
 801:	c3                   	ret    
 802:	8d b6 00 00 00 00    	lea    0x0(%esi),%esi
 808:	39 cf                	cmp    %ecx,%edi
 80a:	74 54                	je     860 <malloc+0xf0>
 80c:	29 f9                	sub    %edi,%ecx
 80e:	89 48 04             	mov    %ecx,0x4(%eax)
 811:	8d 04 c8             	lea    (%eax,%ecx,8),%eax
 814:	89 78 04             	mov    %edi,0x4(%eax)
 817:	89 15 28 0b 00 00    	mov    %edx,0xb28
 81d:	8d 65 f4             	lea    -0xc(%ebp),%esp
 820:	83 c0 08             	add    $0x8,%eax
 823:	5b                   	pop    %ebx
 824:	5e                   	pop    %esi
 825:	5f                   	pop    %edi
 826:	5d                   	pop    %ebp
 827:	c3                   	ret    
 828:	90                   	nop
 829:	8d b4 26 00 00 00 00 	lea    0x0(%esi,%eiz,1),%esi
 830:	c7 05 28 0b 00 00 2c 	movl   $0xb2c,0xb28
 837:	0b 00 00 
 83a:	c7 05 2c 0b 00 00 2c 	movl   $0xb2c,0xb2c
 841:	0b 00 00 
 844:	b8 2c 0b 00 00       	mov    $0xb2c,%eax
 849:	c7 05 30 0b 00 00 00 	movl   $0x0,0xb30
 850:	00 00 00 
 853:	e9 44 ff ff ff       	jmp    79c <malloc+0x2c>
 858:	90                   	nop
 859:	8d b4 26 00 00 00 00 	lea    0x0(%esi,%eiz,1),%esi
 860:	8b 08                	mov    (%eax),%ecx
 862:	89 0a                	mov    %ecx,(%edx)
 864:	eb b1                	jmp    817 <malloc+0xa7>
